target datalayout = "e-m:e-p270:32:32-p271:32:32-p272:64:64-i64:64-i128:128-f80:128-n8:16:32:64-S128"
target triple = "x86_64-pc-linux-gnu"

%struct._lv_svg_drawing_builder_state = type { ptr, ptr, i32, i8, i8, ptr, ptr, ptr }
%struct._lv_svg_draw_dsc = type { ptr, %struct._lv_vector_draw_dsc_t, ptr, ptr }
%struct._lv_vector_draw_dsc_t = type { %struct._lv_vector_fill_dsc_t, %struct._lv_vector_stroke_dsc_t, %struct._lv_matrix_t, i32, %struct.lv_area_t }
%struct._lv_vector_fill_dsc_t = type { i32, %struct.lv_color32_t, i8, i32, %struct._lv_draw_image_dsc_t, %struct._lv_vector_gradient_t, %struct._lv_matrix_t }
%struct.lv_color32_t = type { i8, i8, i8, i8 }
%struct._lv_draw_image_dsc_t = type { %struct.lv_draw_dsc_base_t, ptr, %struct.lv_image_header_t, i32, i32, i32, i32, i32, %struct.lv_point_t, %struct.lv_color_t, i8, i8, i8, ptr, %struct.lv_area_t, i32, ptr }
%struct.lv_draw_dsc_base_t = type { ptr, i32, i32, i32, ptr, i64, ptr }
%struct.lv_image_header_t = type <{ i64, i32 }>
%struct.lv_point_t = type { i32, i32 }
%struct.lv_color_t = type { i8, i8, i8 }
%struct._lv_vector_gradient_t = type { i32, [2 x %struct.lv_gradient_stop_t], i16, float, float, float, float, float, float, float, i32 }
%struct.lv_gradient_stop_t = type { %struct.lv_color_t, i8, i8 }
%struct._lv_vector_stroke_dsc_t = type { i32, %struct.lv_color32_t, i8, float, %struct._lv_array_t, i32, i32, i16, %struct._lv_vector_gradient_t, %struct._lv_matrix_t }
%struct._lv_array_t = type { ptr, i32, i32, i32, i8 }
%struct._lv_matrix_t = type { [3 x [3 x float]] }
%struct.lv_area_t = type { i32, i32, i32, i32 }

; Function Attrs: nounwind uwtable
define internal void @_deinit_draw_dsc(ptr noundef %0) #0 {
  %2 = alloca ptr, align 8
  store ptr %0, ptr %2, align 8, !tbaa !3
  %3 = load ptr, ptr %2, align 8, !tbaa !3
  %4 = getelementptr inbounds nuw %struct._lv_vector_draw_dsc_t, ptr %3, i32 0, i32 1
  %5 = getelementptr inbounds nuw %struct._lv_vector_stroke_dsc_t, ptr %4, i32 0, i32 4
  call void @lv_array_deinit(ptr noundef %5)
  ret void
}

; Function Attrs: nounwind uwtable
define internal void @_init_draw_dsc(ptr noundef %0) #0 {
  %2 = alloca ptr, align 8
  %3 = alloca ptr, align 8
  %4 = alloca %struct.lv_color32_t, align 1
  %5 = alloca %struct.lv_color_t, align 1
  %6 = alloca i24, align 4
  %7 = alloca ptr, align 8
  %8 = alloca %struct.lv_color32_t, align 1
  %9 = alloca %struct.lv_color_t, align 1
  %10 = alloca i24, align 4
  store ptr %0, ptr %2, align 8, !tbaa !3
  call void @llvm.lifetime.start.p0(i64 8, ptr %3) #8
  %11 = load ptr, ptr %2, align 8, !tbaa !3
  %12 = getelementptr inbounds nuw %struct._lv_vector_draw_dsc_t, ptr %11, i32 0, i32 0
  store ptr %12, ptr %3, align 8, !tbaa !3
  %13 = load ptr, ptr %3, align 8, !tbaa !3
  %14 = getelementptr inbounds nuw %struct._lv_vector_fill_dsc_t, ptr %13, i32 0, i32 0
  store i32 0, ptr %14, align 8, !tbaa !77
  %15 = load ptr, ptr %3, align 8, !tbaa !3
  %16 = getelementptr inbounds nuw %struct._lv_vector_fill_dsc_t, ptr %15, i32 0, i32 1
  call void @llvm.lifetime.start.p0(i64 4, ptr %4) #8
  %17 = call i24 @lv_color_black()
  store i24 %17, ptr %5, align 1
  call void @llvm.memcpy.p0.p0.i64(ptr align 4 %6, ptr align 1 %5, i64 3, i1 false)
  %18 = load i24, ptr %6, align 4
  %19 = call i32 @lv_color_to_32(i24 %18, i8 noundef zeroext -1)
  store i32 %19, ptr %4, align 1
  call void @llvm.memcpy.p0.p0.i64(ptr align 4 %16, ptr align 1 %4, i64 4, i1 false), !tbaa.struct !78
  call void @llvm.lifetime.end.p0(i64 4, ptr %4) #8
  %20 = load ptr, ptr %3, align 8, !tbaa !3
  %21 = getelementptr inbounds nuw %struct._lv_vector_fill_dsc_t, ptr %20, i32 0, i32 2
  store i8 -1, ptr %21, align 8, !tbaa !80
  %22 = load ptr, ptr %3, align 8, !tbaa !3
  %23 = getelementptr inbounds nuw %struct._lv_vector_fill_dsc_t, ptr %22, i32 0, i32 3
  store i32 0, ptr %23, align 4, !tbaa !81
  %24 = load ptr, ptr %3, align 8, !tbaa !3
  %25 = getelementptr inbounds nuw %struct._lv_vector_fill_dsc_t, ptr %24, i32 0, i32 6
  call void @lv_matrix_identity(ptr noundef %25)
  call void @llvm.lifetime.start.p0(i64 8, ptr %7) #8
  %26 = load ptr, ptr %2, align 8, !tbaa !3
  %27 = getelementptr inbounds nuw %struct._lv_vector_draw_dsc_t, ptr %26, i32 0, i32 1
  store ptr %27, ptr %7, align 8, !tbaa !3
  %28 = load ptr, ptr %7, align 8, !tbaa !3
  %29 = getelementptr inbounds nuw %struct._lv_vector_stroke_dsc_t, ptr %28, i32 0, i32 0
  store i32 0, ptr %29, align 8, !tbaa !82
  %30 = load ptr, ptr %7, align 8, !tbaa !3
  %31 = getelementptr inbounds nuw %struct._lv_vector_stroke_dsc_t, ptr %30, i32 0, i32 1
  call void @llvm.lifetime.start.p0(i64 4, ptr %8) #8
  %32 = call i24 @lv_color_black()
  store i24 %32, ptr %9, align 1
  call void @llvm.memcpy.p0.p0.i64(ptr align 4 %10, ptr align 1 %9, i64 3, i1 false)
  %33 = load i24, ptr %10, align 4
  %34 = call i32 @lv_color_to_32(i24 %33, i8 noundef zeroext -1)
  store i32 %34, ptr %8, align 1
  call void @llvm.memcpy.p0.p0.i64(ptr align 4 %31, ptr align 1 %8, i64 4, i1 false), !tbaa.struct !78
  call void @llvm.lifetime.end.p0(i64 4, ptr %8) #8
  %35 = load ptr, ptr %7, align 8, !tbaa !3
  %36 = getelementptr inbounds nuw %struct._lv_vector_stroke_dsc_t, ptr %35, i32 0, i32 2
  store i8 0, ptr %36, align 8, !tbaa !83
  %37 = load ptr, ptr %7, align 8, !tbaa !3
  %38 = getelementptr inbounds nuw %struct._lv_vector_stroke_dsc_t, ptr %37, i32 0, i32 3
  store float 1.000000e+00, ptr %38, align 4, !tbaa !84
  %39 = load ptr, ptr %7, align 8, !tbaa !3
  %40 = getelementptr inbounds nuw %struct._lv_vector_stroke_dsc_t, ptr %39, i32 0, i32 5
  store i32 0, ptr %40, align 8, !tbaa !85
  %41 = load ptr, ptr %7, align 8, !tbaa !3
  %42 = getelementptr inbounds nuw %struct._lv_vector_stroke_dsc_t, ptr %41, i32 0, i32 6
  store i32 0, ptr %42, align 4, !tbaa !86
  %43 = load ptr, ptr %7, align 8, !tbaa !3
  %44 = getelementptr inbounds nuw %struct._lv_vector_stroke_dsc_t, ptr %43, i32 0, i32 7
  store i16 4, ptr %44, align 8, !tbaa !87
  %45 = load ptr, ptr %7, align 8, !tbaa !3
  %46 = getelementptr inbounds nuw %struct._lv_vector_stroke_dsc_t, ptr %45, i32 0, i32 9
  call void @lv_matrix_identity(ptr noundef %46)
  %47 = load ptr, ptr %2, align 8, !tbaa !3
  %48 = getelementptr inbounds nuw %struct._lv_vector_draw_dsc_t, ptr %47, i32 0, i32 3
  store i32 0, ptr %48, align 4, !tbaa !88
  %49 = load ptr, ptr %2, align 8, !tbaa !3
  %50 = getelementptr inbounds nuw %struct._lv_vector_draw_dsc_t, ptr %49, i32 0, i32 2
  call void @lv_matrix_identity(ptr noundef %50)
  call void @llvm.lifetime.end.p0(i64 8, ptr %7) #8
  call void @llvm.lifetime.end.p0(i64 8, ptr %3) #8
  ret void
}

; Function Attrs: nounwind uwtable
define internal void @_lv_svg_draw_dsc_delete(ptr noundef %0) #0 {
  %2 = alloca ptr, align 8
  %3 = alloca ptr, align 8
  store ptr %0, ptr %2, align 8, !tbaa !3
  br label %4

4:                                                ; preds = %7, %1
  %5 = load ptr, ptr %2, align 8, !tbaa !3
  %6 = icmp ne ptr %5, null
  br i1 %6, label %7, label %15

7:                                                ; preds = %4
  call void @llvm.lifetime.start.p0(i64 8, ptr %3) #8
  %8 = load ptr, ptr %2, align 8, !tbaa !3
  store ptr %8, ptr %3, align 8, !tbaa !3
  %9 = load ptr, ptr %2, align 8, !tbaa !3
  %10 = getelementptr inbounds nuw %struct._lv_svg_draw_dsc, ptr %9, i32 0, i32 0
  %11 = load ptr, ptr %10, align 8, !tbaa !67
  store ptr %11, ptr %2, align 8, !tbaa !3
  %12 = load ptr, ptr %3, align 8, !tbaa !3
  %13 = getelementptr inbounds nuw %struct._lv_svg_draw_dsc, ptr %12, i32 0, i32 1
  call void @_deinit_draw_dsc(ptr noundef %13)
  %14 = load ptr, ptr %3, align 8, !tbaa !3
  call void @lv_free(ptr noundef %14)
  call void @llvm.lifetime.end.p0(i64 8, ptr %3) #8
  br label %4, !llvm.loop !69

15:                                               ; preds = %4
  ret void
}

; Function Attrs: nounwind uwtable
define internal ptr @_lv_svg_draw_dsc_create() #0 {
  %1 = alloca ptr, align 8
  call void @llvm.lifetime.start.p0(i64 8, ptr %1) #8
  %2 = call ptr @lv_malloc_zeroed(i64 noundef 464)
  store ptr %2, ptr %1, align 8, !tbaa !3
  br label %3

3:                                                ; preds = %0
  %4 = load ptr, ptr %1, align 8, !tbaa !3
  %5 = icmp ne ptr %4, null
  br i1 %5, label %12, label %6

6:                                                ; preds = %3
  br label %7

7:                                                ; preds = %6
  br label %8

8:                                                ; preds = %7
  br label %9

9:                                                ; preds = %8
  br label %10

10:                                               ; preds = %11, %9
  br label %11

11:                                               ; preds = %10
  br label %10

12:                                               ; preds = %3
  br label %13

13:                                               ; preds = %12
  br label %14

14:                                               ; preds = %13
  %15 = load ptr, ptr %1, align 8, !tbaa !3
  %16 = getelementptr inbounds nuw %struct._lv_svg_draw_dsc, ptr %15, i32 0, i32 1
  call void @_init_draw_dsc(ptr noundef %16)
  %17 = load ptr, ptr %1, align 8, !tbaa !3
  call void @llvm.lifetime.end.p0(i64 8, ptr %1) #8
  ret ptr %17
}

; Function Attrs: nounwind uwtable
define ptr @lv_svg_render_create(ptr noundef %0) #0 {
  %2 = alloca ptr, align 8
  %3 = alloca ptr, align 8
  %4 = alloca ptr, align 8
  %5 = alloca %struct._lv_svg_drawing_builder_state, align 8
  store ptr %0, ptr %3, align 8, !tbaa !3
  %6 = load ptr, ptr %3, align 8, !tbaa !3
  %7 = icmp ne ptr %6, null
  br i1 %7, label %9, label %8

8:                                                ; preds = %1
  store ptr null, ptr %2, align 8
  br label %27

9:                                                ; preds = %1
  call void @llvm.lifetime.start.p0(i64 8, ptr %4) #8
  %10 = call ptr @_lv_svg_draw_dsc_create()
  store ptr %10, ptr %4, align 8, !tbaa !3
  call void @llvm.lifetime.start.p0(i64 48, ptr %5) #8
  %11 = getelementptr inbounds nuw %struct._lv_svg_drawing_builder_state, ptr %5, i32 0, i32 0
  %12 = load ptr, ptr %3, align 8, !tbaa !3
  store ptr %12, ptr %11, align 8, !tbaa !24
  %13 = getelementptr inbounds nuw %struct._lv_svg_drawing_builder_state, ptr %5, i32 0, i32 1
  %14 = load ptr, ptr %4, align 8, !tbaa !3
  store ptr %14, ptr %13, align 8, !tbaa !27
  %15 = getelementptr inbounds nuw %struct._lv_svg_drawing_builder_state, ptr %5, i32 0, i32 2
  store i32 0, ptr %15, align 8, !tbaa !28
  %16 = getelementptr inbounds nuw %struct._lv_svg_drawing_builder_state, ptr %5, i32 0, i32 3
  store i8 0, ptr %16, align 4, !tbaa !29
  %17 = getelementptr inbounds nuw %struct._lv_svg_drawing_builder_state, ptr %5, i32 0, i32 4
  store i8 0, ptr %17, align 1, !tbaa !30
  %18 = getelementptr i8, ptr %5, i64 22
  call void @llvm.memset.p0.i64(ptr align 2 %18, i8 0, i64 2, i1 false)
  %19 = getelementptr inbounds nuw %struct._lv_svg_drawing_builder_state, ptr %5, i32 0, i32 5
  store ptr null, ptr %19, align 8, !tbaa !31
  %20 = getelementptr inbounds nuw %struct._lv_svg_drawing_builder_state, ptr %5, i32 0, i32 6
  store ptr null, ptr %20, align 8, !tbaa !32
  %21 = getelementptr inbounds nuw %struct._lv_svg_drawing_builder_state, ptr %5, i32 0, i32 7
  store ptr null, ptr %21, align 8, !tbaa !33
  %22 = load ptr, ptr %3, align 8, !tbaa !3
  %23 = call zeroext i1 @lv_tree_walk(ptr noundef %22, i8 noundef zeroext 0, ptr noundef @_lv_svg_doc_walk_cb, ptr noundef @_lv_svg_doc_walk_before_cb, ptr noundef @_lv_svg_doc_walk_after_cb, ptr noundef %5)
  %24 = load ptr, ptr %4, align 8, !tbaa !3
  call void @_lv_svg_draw_dsc_delete(ptr noundef %24)
  %25 = getelementptr inbounds nuw %struct._lv_svg_drawing_builder_state, ptr %5, i32 0, i32 6
  %26 = load ptr, ptr %25, align 8, !tbaa !32
  store ptr %26, ptr %2, align 8
  call void @llvm.lifetime.end.p0(i64 48, ptr %5) #8
  call void @llvm.lifetime.end.p0(i64 8, ptr %4) #8
  br label %27

27:                                               ; preds = %9, %8
  %28 = load ptr, ptr %2, align 8
  ret ptr %28
}