; Function Attrs: nounwind uwtable
define ptr @lv_svg_render_create(ptr noundef %0) local_unnamed_addr #0 {
  %2 = alloca %struct._lv_svg_drawing_builder_state, align 8
  %.not = icmp eq ptr %0, null
  br i1 %.not, label %32, label %3

3:                                                ; preds = %1
  %4 = tail call ptr @lv_malloc_zeroed(i64 noundef 464) #9
  %.not.i = icmp eq ptr %4, null
  br i1 %.not.i, label %.preheader.i, label %_lv_svg_draw_dsc_create.exit

.preheader.i:                                     ; preds = %3, %.preheader.i
  br label %.preheader.i

_lv_svg_draw_dsc_create.exit:                     ; preds = %3
  %5 = getelementptr inbounds nuw i8, ptr %4, i64 8
  store i32 0, ptr %5, align 8, !tbaa !23
  %6 = getelementptr inbounds nuw i8, ptr %4, i64 12
  %7 = tail call i24 @lv_color_black() #9
  %8 = tail call i32 @lv_color_to_32(i24 %7, i8 noundef zeroext -1) #9
  store i32 %8, ptr %6, align 4
  %9 = getelementptr inbounds nuw i8, ptr %4, i64 16
  store i8 -1, ptr %9, align 8, !tbaa !36
  %10 = getelementptr inbounds nuw i8, ptr %4, i64 20
  store i32 0, ptr %10, align 4, !tbaa !37
  %11 = getelementptr inbounds nuw i8, ptr %4, i64 216
  tail call void @lv_matrix_identity(ptr noundef nonnull %11) #9
  %12 = getelementptr inbounds nuw i8, ptr %4, i64 256
  store i32 0, ptr %12, align 8, !tbaa !38
  %13 = getelementptr inbounds nuw i8, ptr %4, i64 260
  %14 = tail call i24 @lv_color_black() #9
  %15 = tail call i32 @lv_color_to_32(i24 %14, i8 noundef zeroext -1) #9
  store i32 %15, ptr %13, align 4
  %16 = getelementptr inbounds nuw i8, ptr %4, i64 264
  store i8 0, ptr %16, align 8, !tbaa !42
  %17 = getelementptr inbounds nuw i8, ptr %4, i64 268
  store float 1.000000e+00, ptr %17, align 4, !tbaa !43
  %18 = getelementptr inbounds nuw i8, ptr %4, i64 296
  store i32 0, ptr %18, align 8, !tbaa !44
  %19 = getelementptr inbounds nuw i8, ptr %4, i64 300
  store i32 0, ptr %19, align 4, !tbaa !45
  %20 = getelementptr inbounds nuw i8, ptr %4, i64 304
  store i16 4, ptr %20, align 8, !tbaa !46
  %21 = getelementptr inbounds nuw i8, ptr %4, i64 356
  tail call void @lv_matrix_identity(ptr noundef nonnull %21) #9
  %22 = getelementptr inbounds nuw i8, ptr %4, i64 428
  store i32 0, ptr %22, align 4, !tbaa !47
  %23 = getelementptr inbounds nuw i8, ptr %4, i64 392
  tail call void @lv_matrix_identity(ptr noundef nonnull %23) #9
  call void @llvm.lifetime.start.p0(i64 48, ptr nonnull %2) #9
  store ptr %0, ptr %2, align 8, !tbaa !49
  %24 = getelementptr inbounds nuw i8, ptr %2, i64 8
  store ptr %4, ptr %24, align 8, !tbaa !51
  %25 = getelementptr inbounds nuw i8, ptr %2, i64 16
  %26 = getelementptr inbounds nuw i8, ptr %2, i64 32
  call void @llvm.memset.p0.i64(ptr noundef nonnull align 8 dereferenceable(32) %25, i8 0, i64 32, i1 false)
  %27 = call zeroext i1 @lv_tree_walk(ptr noundef nonnull %0, i8 noundef zeroext 0, ptr noundef nonnull @_lv_svg_doc_walk_cb, ptr noundef nonnull @_lv_svg_doc_walk_before_cb, ptr noundef nonnull @_lv_svg_doc_walk_after_cb, ptr noundef nonnull %2) #9
  br label %28

28:                                               ; preds = %28, %_lv_svg_draw_dsc_create.exit
  %.05.i = phi ptr [ %4, %_lv_svg_draw_dsc_create.exit ], [ %29, %28 ]
  %29 = load ptr, ptr %.05.i, align 8, !tbaa !52
  %30 = getelementptr inbounds nuw i8, ptr %.05.i, i64 272
  call void @lv_array_deinit(ptr noundef nonnull %30) #9
  call void @lv_free(ptr noundef nonnull %.05.i) #9
  %.not.i7 = icmp eq ptr %29, null
  br i1 %.not.i7, label %_lv_svg_draw_dsc_delete.exit, label %28, !llvm.loop !54

_lv_svg_draw_dsc_delete.exit:                     ; preds = %28
  %31 = load ptr, ptr %26, align 8, !tbaa !56
  call void @llvm.lifetime.end.p0(i64 48, ptr nonnull %2) #9
  br label %32

32:                                               ; preds = %1, %_lv_svg_draw_dsc_delete.exit
  %.0 = phi ptr [ %31, %_lv_svg_draw_dsc_delete.exit ], [ null, %1 ]
  ret ptr %.0
}